target datalayout = "e-m:e-p270:32:32-p271:32:32-p272:64:64-i64:64-i128:128-f80:128-n8:16:32:64-S128"
target triple = "x86_64-pc-linux-gnu"

; Function Attrs: cold nounwind optsize uwtable
define internal void @make_filters_from_proto(ptr noundef %0, ptr noundef %1, i32 noundef %2) #3 {
  %4 = alloca ptr, align 8
  %5 = alloca ptr, align 8
  %6 = alloca i32, align 4
  %7 = alloca i32, align 4
  %8 = alloca i32, align 4
  %9 = alloca double, align 8
  store ptr %0, ptr %4, align 8, !tbaa !9
  store ptr %1, ptr %5, align 8, !tbaa !9
  store i32 %2, ptr %6, align 4, !tbaa !11
  call void @llvm.lifetime.start.p0(i64 4, ptr %7) #8
  call void @llvm.lifetime.start.p0(i64 4, ptr %8) #8
  store i32 0, ptr %7, align 4, !tbaa !11
  br label %10

10:                                               ; preds = %71, %3
  %11 = load i32, ptr %7, align 4, !tbaa !11
  %12 = load i32, ptr %6, align 4, !tbaa !11
  %13 = icmp slt i32 %11, %12
  br i1 %13, label %14, label %74

14:                                               ; preds = %10
  store i32 0, ptr %8, align 4, !tbaa !11
  br label %15

15:                                               ; preds = %67, %14
  %16 = load i32, ptr %8, align 4, !tbaa !11
  %17 = icmp slt i32 %16, 7
  br i1 %17, label %18, label %70

18:                                               ; preds = %15
  call void @llvm.lifetime.start.p0(i64 8, ptr %9) #8
  %19 = load i32, ptr %7, align 4, !tbaa !11
  %20 = sitofp i32 %19 to double
  %21 = fadd nsz double %20, 5.000000e-01
  %22 = fmul nsz double 0x401921FB54442D18, %21
  %23 = load i32, ptr %8, align 4, !tbaa !11
  %24 = sub nsw i32 %23, 6
  %25 = sitofp i32 %24 to double
  %26 = fmul nsz double %22, %25
  %27 = load i32, ptr %6, align 4, !tbaa !11
  %28 = sitofp i32 %27 to double
  %29 = fdiv nsz double %26, %28
  store double %29, ptr %9, align 8, !tbaa !66
  %30 = load ptr, ptr %5, align 8, !tbaa !9
  %31 = load i32, ptr %8, align 4, !tbaa !11
  %32 = sext i32 %31 to i64
  %33 = getelementptr inbounds float, ptr %30, i64 %32
  %34 = load float, ptr %33, align 4, !tbaa !19
  %35 = fpext nsz float %34 to double
  %36 = load double, ptr %9, align 8, !tbaa !66
  %37 = call nsz double @llvm.cos.f64(double %36)
  %38 = fmul nsz double %35, %37
  %39 = fptrunc nsz double %38 to float
  %40 = load ptr, ptr %4, align 8, !tbaa !9
  %41 = load i32, ptr %7, align 4, !tbaa !11
  %42 = sext i32 %41 to i64
  %43 = getelementptr inbounds [8 x [2 x float]], ptr %40, i64 %42
  %44 = load i32, ptr %8, align 4, !tbaa !11
  %45 = sext i32 %44 to i64
  %46 = getelementptr inbounds [8 x [2 x float]], ptr %43, i64 0, i64 %45
  %47 = getelementptr inbounds [2 x float], ptr %46, i64 0, i64 0
  store float %39, ptr %47, align 4, !tbaa !19
  %48 = load ptr, ptr %5, align 8, !tbaa !9
  %49 = load i32, ptr %8, align 4, !tbaa !11
  %50 = sext i32 %49 to i64
  %51 = getelementptr inbounds float, ptr %48, i64 %50
  %52 = load float, ptr %51, align 4, !tbaa !19
  %53 = fpext nsz float %52 to double
  %54 = load double, ptr %9, align 8, !tbaa !66
  %55 = call nsz double @llvm.sin.f64(double %54)
  %56 = fneg nsz double %55
  %57 = fmul nsz double %53, %56
  %58 = fptrunc nsz double %57 to float
  %59 = load ptr, ptr %4, align 8, !tbaa !9
  %60 = load i32, ptr %7, align 4, !tbaa !11
  %61 = sext i32 %60 to i64
  %62 = getelementptr inbounds [8 x [2 x float]], ptr %59, i64 %61
  %63 = load i32, ptr %8, align 4, !tbaa !11
  %64 = sext i32 %63 to i64
  %65 = getelementptr inbounds [8 x [2 x float]], ptr %62, i64 0, i64 %64
  %66 = getelementptr inbounds [2 x float], ptr %65, i64 0, i64 1
  store float %58, ptr %66, align 4, !tbaa !19
  call void @llvm.lifetime.end.p0(i64 8, ptr %9) #8
  br label %67

67:                                               ; preds = %18
  %68 = load i32, ptr %8, align 4, !tbaa !11
  %69 = add nsw i32 %68, 1
  store i32 %69, ptr %8, align 4, !tbaa !11
  br label %15, !llvm.loop !86

70:                                               ; preds = %15
  br label %71

71:                                               ; preds = %70
  %72 = load i32, ptr %7, align 4, !tbaa !11
  %73 = add nsw i32 %72, 1
  store i32 %73, ptr %7, align 4, !tbaa !11
  br label %10, !llvm.loop !87

74:                                               ; preds = %10
  call void @llvm.lifetime.end.p0(i64 4, ptr %8) #8
  call void @llvm.lifetime.end.p0(i64 4, ptr %7) #8
  ret void
}