; Function Attrs: cold nofree norecurse nosync nounwind optsize memory(argmem: readwrite) uwtable
define internal fastcc void @make_filters_from_proto(ptr noundef writeonly captures(none) %0, ptr noundef readonly captures(none) %1, i32 noundef range(i32 4, 13) %2) unnamed_addr #10 {
  %4 = uitofp nneg i32 %2 to double
  %wide.trip.count = zext nneg i32 %2 to i64
  br label %.preheader

.preheader:                                       ; preds = %3, %29
  %indvars.iv24 = phi i64 [ 0, %3 ], [ %indvars.iv.next25, %29 ]
  %5 = trunc nuw nsw i64 %indvars.iv24 to i32
  %6 = uitofp nneg i32 %5 to double
  %7 = fadd nsz double %6, 5.000000e-01
  %8 = fmul nsz double %7, 0x401921FB54442D18
  br label %9

9:                                                ; preds = %.preheader, %9
  %indvars.iv = phi i64 [ 0, %.preheader ], [ %indvars.iv.next, %9 ]
  %10 = trunc i64 %indvars.iv to i32
  %11 = add i32 %10, -6
  %12 = sitofp i32 %11 to double
  %13 = fmul nsz double %8, %12
  %14 = fdiv nsz double %13, %4
  %15 = getelementptr inbounds nuw float, ptr %1, i64 %indvars.iv
  %16 = load float, ptr %15, align 4, !tbaa !13
  %17 = fpext nsz float %16 to double
  %18 = tail call nsz double @llvm.cos.f64(double %14)
  %19 = fmul nsz double %18, %17
  %20 = fptrunc nsz double %19 to float
  %21 = getelementptr inbounds nuw [8 x [2 x float]], ptr %0, i64 %indvars.iv24, i64 %indvars.iv
  store float %20, ptr %21, align 4, !tbaa !13
  %22 = load float, ptr %15, align 4, !tbaa !13
  %23 = fpext nsz float %22 to double
  %24 = tail call nsz double @llvm.sin.f64(double %14)
  %25 = fneg nsz double %24
  %26 = fmul nsz double %25, %23
  %27 = fptrunc nsz double %26 to float
  %28 = getelementptr inbounds nuw i8, ptr %21, i64 4
  store float %27, ptr %28, align 4, !tbaa !13
  %indvars.iv.next = add nuw nsw i64 %indvars.iv, 1
  %exitcond.not = icmp eq i64 %indvars.iv.next, 7
  br i1 %exitcond.not, label %29, label %9, !llvm.loop !72

29:                                               ; preds = %9
  %indvars.iv.next25 = add nuw nsw i64 %indvars.iv24, 1
  %exitcond27.not = icmp eq i64 %indvars.iv.next25, %wide.trip.count
  br i1 %exitcond27.not, label %30, label %.preheader, !llvm.loop !73

30:                                               ; preds = %29
  ret void
}